target datalayout = "e-m:e-p270:32:32-p271:32:32-p272:64:64-i64:64-i128:128-f80:128-n8:16:32:64-S128"
target triple = "x86_64-pc-linux-gnu"

%"class.llvm::MCAssembler" = type <{ ptr, %"class.std::unique_ptr", %"class.std::unique_ptr.2", %"class.std::unique_ptr.10", i8, i8, [6 x i8], %"class.llvm::SmallVector", %"class.llvm::SmallVector.18", %"struct.llvm::MCDwarfLineTableParams", [5 x i8], %"class.llvm::SmallPtrSet", i32, [4 x i8] }>
%"class.std::unique_ptr" = type { %"struct.std::__uniq_ptr_data" }
%"struct.std::__uniq_ptr_data" = type { %"class.std::__uniq_ptr_impl" }
%"class.std::__uniq_ptr_impl" = type { %"class.std::tuple" }
%"class.std::tuple" = type { %"struct.std::_Tuple_impl" }
%"struct.std::_Tuple_impl" = type { %"struct.std::_Head_base.1" }
%"struct.std::_Head_base.1" = type { ptr }
%"class.std::unique_ptr.2" = type { %"struct.std::__uniq_ptr_data.3" }
%"struct.std::__uniq_ptr_data.3" = type { %"class.std::__uniq_ptr_impl.4" }
%"class.std::__uniq_ptr_impl.4" = type { %"class.std::tuple.5" }
%"class.std::tuple.5" = type { %"struct.std::_Tuple_impl.6" }
%"struct.std::_Tuple_impl.6" = type { %"struct.std::_Head_base.9" }
%"struct.std::_Head_base.9" = type { ptr }
%"class.std::unique_ptr.10" = type { %"struct.std::__uniq_ptr_data.11" }
%"struct.std::__uniq_ptr_data.11" = type { %"class.std::__uniq_ptr_impl.12" }
%"class.std::__uniq_ptr_impl.12" = type { %"class.std::tuple.13" }
%"class.std::tuple.13" = type { %"struct.std::_Tuple_impl.14" }
%"struct.std::_Tuple_impl.14" = type { %"struct.std::_Head_base.17" }
%"struct.std::_Head_base.17" = type { ptr }
%"class.llvm::SmallVector" = type { %"class.llvm::SmallVectorImpl" }
%"class.llvm::SmallVectorImpl" = type { %"class.llvm::SmallVectorTemplateBase" }
%"class.llvm::SmallVectorTemplateBase" = type { %"class.llvm::SmallVectorTemplateCommon" }
%"class.llvm::SmallVectorTemplateCommon" = type { %"class.llvm::SmallVectorBase" }
%"class.llvm::SmallVectorBase" = type { ptr, i32, i32 }
%"class.llvm::SmallVector.18" = type { %"class.llvm::SmallVectorImpl.19" }
%"class.llvm::SmallVectorImpl.19" = type { %"class.llvm::SmallVectorTemplateBase.20" }
%"class.llvm::SmallVectorTemplateBase.20" = type { %"class.llvm::SmallVectorTemplateCommon.21" }
%"class.llvm::SmallVectorTemplateCommon.21" = type { %"class.llvm::SmallVectorBase" }
%"struct.llvm::MCDwarfLineTableParams" = type { i8, i8, i8 }
%"class.llvm::SmallPtrSet" = type { %"class.llvm::SmallPtrSetImpl.base", [32 x ptr] }
%"class.llvm::SmallPtrSetImpl.base" = type { %"class.llvm::SmallPtrSetImplBase.base" }
%"class.llvm::SmallPtrSetImplBase.base" = type <{ ptr, ptr, i32, i32, i32 }>
%"class.llvm::MCFragment.base" = type <{ ptr, ptr, i64, i32, i8, i8 }>
%"class.llvm::MCValue" = type <{ ptr, ptr, i64, i32, [4 x i8] }>
%"class.llvm::MCExpr" = type <{ i8, i32, [3 x i8], %"class.llvm::SMLoc" }>
%"class.llvm::SMLoc" = type { ptr }
%"class.llvm::MCFixup" = type { ptr, i32, i32, %"class.llvm::SMLoc" }
%"class.llvm::MCEncodedFragment" = type { %"class.llvm::MCFragment.base", i8, ptr }
%"class.llvm::SmallVectorImpl.76" = type { %"class.llvm::SmallVectorTemplateBase.77" }
%"class.llvm::SmallVectorTemplateBase.77" = type { %"class.llvm::SmallVectorTemplateCommon.78" }
%"class.llvm::SmallVectorTemplateCommon.78" = type { %"class.llvm::SmallVectorBase.79" }
%"class.llvm::SmallVectorBase.79" = type { ptr, i64, i64 }
%"class.llvm::SmallVectorImpl.164" = type { %"class.llvm::SmallVectorTemplateBase.165" }
%"class.llvm::SmallVectorTemplateBase.165" = type { %"class.llvm::SmallVectorTemplateCommon.166" }
%"class.llvm::SmallVectorTemplateCommon.166" = type { %"class.llvm::SmallVectorBase" }
%"class.llvm::MCEncodedFragmentWithFixups.168" = type { %"class.llvm::MCEncodedFragment", %"class.llvm::SmallVector.169", %"class.llvm::SmallVector.171" }
%"class.llvm::SmallVector.169" = type { %"class.llvm::SmallVectorImpl.76", %"struct.llvm::SmallVectorStorage.170" }
%"struct.llvm::SmallVectorStorage.170" = type { [8 x i8] }
%"class.llvm::SmallVector.171" = type { %"class.llvm::SmallVectorImpl.164", %"struct.llvm::SmallVectorStorage.172" }
%"struct.llvm::SmallVectorStorage.172" = type { [24 x i8] }
%"class.llvm::MCRelaxableFragment" = type { %"class.llvm::MCEncodedFragmentWithFixups.168", %"class.llvm::MCInst" }
%"class.llvm::MCInst" = type { i32, i32, %"class.llvm::SMLoc", %"class.llvm::SmallVector.173" }
%"class.llvm::SmallVector.173" = type { %"class.llvm::SmallVectorImpl.174", %"struct.llvm::SmallVectorStorage.177" }
%"class.llvm::SmallVectorImpl.174" = type { %"class.llvm::SmallVectorTemplateBase.175" }
%"class.llvm::SmallVectorTemplateBase.175" = type { %"class.llvm::SmallVectorTemplateCommon.176" }
%"class.llvm::SmallVectorTemplateCommon.176" = type { %"class.llvm::SmallVectorBase" }
%"struct.llvm::SmallVectorStorage.177" = type { [96 x i8] }

; Function Attrs: mustprogress nounwind uwtable
define linkonce_odr hidden noundef nonnull align 8 dereferenceable(8) ptr @_ZNSt10_Head_baseILm0EPN4llvm12MCAsmBackendELb0EE7_M_headERKS3_(ptr noundef nonnull align 8 dereferenceable(8) %0) #1 comdat align 2 {
  %2 = alloca ptr, align 8
  store ptr %0, ptr %2, align 8
  %3 = load ptr, ptr %2, align 8
  %4 = getelementptr inbounds nuw %"struct.std::_Head_base.1", ptr %3, i32 0, i32 0
  ret ptr %4
}

; Function Attrs: mustprogress nounwind uwtable
define linkonce_odr hidden noundef nonnull align 8 dereferenceable(8) ptr @_ZNSt11_Tuple_implILm0EJPN4llvm12MCAsmBackendESt14default_deleteIS1_EEE7_M_headERKS5_(ptr noundef nonnull align 8 dereferenceable(8) %0) #1 comdat align 2 {
  %2 = alloca ptr, align 8
  store ptr %0, ptr %2, align 8
  %3 = load ptr, ptr %2, align 8
  %4 = call noundef nonnull align 8 dereferenceable(8) ptr @_ZNSt10_Head_baseILm0EPN4llvm12MCAsmBackendELb0EE7_M_headERKS3_(ptr noundef nonnull align 8 dereferenceable(8) %3) #8
  ret ptr %4
}

; Function Attrs: mustprogress nounwind uwtable
define linkonce_odr noundef nonnull align 8 dereferenceable(8) ptr @_ZSt12__get_helperILm0EPN4llvm12MCAsmBackendEJSt14default_deleteIS1_EEERKT0_RKSt11_Tuple_implIXT_EJS5_DpT1_EE(ptr noundef nonnull align 8 dereferenceable(8) %0) #1 comdat {
  %2 = alloca ptr, align 8
  store ptr %0, ptr %2, align 8
  %3 = load ptr, ptr %2, align 8
  %4 = call noundef nonnull align 8 dereferenceable(8) ptr @_ZNSt11_Tuple_implILm0EJPN4llvm12MCAsmBackendESt14default_deleteIS1_EEE7_M_headERKS5_(ptr noundef nonnull align 8 dereferenceable(8) %3) #8
  ret ptr %4
}

; Function Attrs: mustprogress nounwind uwtable
define linkonce_odr noundef nonnull align 8 dereferenceable(8) ptr @_ZSt3getILm0EJPN4llvm12MCAsmBackendESt14default_deleteIS1_EEERKNSt13tuple_elementIXT_ESt5tupleIJDpT0_EEE4typeERKS9_(ptr noundef nonnull align 8 dereferenceable(8) %0) #1 comdat {
  %2 = alloca ptr, align 8
  store ptr %0, ptr %2, align 8
  %3 = load ptr, ptr %2, align 8
  %4 = call noundef nonnull align 8 dereferenceable(8) ptr @_ZSt12__get_helperILm0EPN4llvm12MCAsmBackendEJSt14default_deleteIS1_EEERKT0_RKSt11_Tuple_implIXT_EJS5_DpT1_EE(ptr noundef nonnull align 8 dereferenceable(8) %3) #8
  ret ptr %4
}

; Function Attrs: mustprogress nounwind uwtable
define linkonce_odr hidden noundef ptr @_ZNKSt15__uniq_ptr_implIN4llvm12MCAsmBackendESt14default_deleteIS1_EE6_M_ptrEv(ptr noundef nonnull align 8 dereferenceable(8) %0) #1 comdat align 2 {
  %2 = alloca ptr, align 8
  store ptr %0, ptr %2, align 8
  %3 = load ptr, ptr %2, align 8
  %4 = getelementptr inbounds nuw %"class.std::__uniq_ptr_impl", ptr %3, i32 0, i32 0
  %5 = call noundef nonnull align 8 dereferenceable(8) ptr @_ZSt3getILm0EJPN4llvm12MCAsmBackendESt14default_deleteIS1_EEERKNSt13tuple_elementIXT_ESt5tupleIJDpT0_EEE4typeERKS9_(ptr noundef nonnull align 8 dereferenceable(8) %4) #8
  %6 = load ptr, ptr %5, align 8
  ret ptr %6
}

; Function Attrs: mustprogress nounwind uwtable
define linkonce_odr hidden noundef i32 @_ZNK4llvm6MCExpr15getSubclassDataEv(ptr noundef nonnull align 8 dereferenceable(16) %0) #1 comdat align 2 {
  %2 = alloca ptr, align 8
  store ptr %0, ptr %2, align 8
  %3 = load ptr, ptr %2, align 8
  %4 = getelementptr inbounds nuw %"class.llvm::MCExpr", ptr %3, i32 0, i32 1
  %5 = load i32, ptr %4, align 1
  %6 = and i32 %5, 16777215
  ret i32 %6
}

; Function Attrs: mustprogress nounwind uwtable
define linkonce_odr hidden noundef ptr @_ZNKSt10unique_ptrIN4llvm12MCAsmBackendESt14default_deleteIS1_EE3getEv(ptr noundef nonnull align 8 dereferenceable(8) %0) #1 comdat align 2 {
  %2 = alloca ptr, align 8
  store ptr %0, ptr %2, align 8
  %3 = load ptr, ptr %2, align 8
  %4 = getelementptr inbounds nuw %"class.std::unique_ptr", ptr %3, i32 0, i32 0
  %5 = call noundef ptr @_ZNKSt15__uniq_ptr_implIN4llvm12MCAsmBackendESt14default_deleteIS1_EE6_M_ptrEv(ptr noundef nonnull align 8 dereferenceable(8) %4) #8
  ret ptr %5
}

; Function Attrs: mustprogress nounwind uwtable
define linkonce_odr hidden noundef i32 @_ZNK4llvm7MCFixup7getKindEv(ptr noundef nonnull align 8 dereferenceable(24) %0) #1 comdat align 2 {
  %2 = alloca ptr, align 8
  store ptr %0, ptr %2, align 8
  %3 = load ptr, ptr %2, align 8
  %4 = getelementptr inbounds nuw %"class.llvm::MCFixup", ptr %3, i32 0, i32 2
  %5 = load i32, ptr %4, align 4
  ret i32 %5
}

; Function Attrs: mustprogress nounwind uwtable
define linkonce_odr hidden noundef zeroext i16 @_ZNK4llvm15MCSymbolRefExpr7getKindEv(ptr noundef nonnull align 8 dereferenceable(24) %0) #1 comdat align 2 {
  %2 = alloca ptr, align 8
  store ptr %0, ptr %2, align 8
  %3 = load ptr, ptr %2, align 8
  %4 = call noundef i32 @_ZNK4llvm6MCExpr15getSubclassDataEv(ptr noundef nonnull align 8 dereferenceable(16) %3)
  %5 = and i32 %4, 65535
  %6 = trunc i32 %5 to i16
  ret i16 %6
}

; Function Attrs: mustprogress nounwind uwtable
define linkonce_odr hidden noundef ptr @_ZNK4llvm7MCValue7getSymAEv(ptr noundef nonnull align 8 dereferenceable(28) %0) #1 comdat align 2 {
  %2 = alloca ptr, align 8
  store ptr %0, ptr %2, align 8
  %3 = load ptr, ptr %2, align 8
  %4 = getelementptr inbounds nuw %"class.llvm::MCValue", ptr %3, i32 0, i32 0
  %5 = load ptr, ptr %4, align 8
  ret ptr %5
}

; Function Attrs: mustprogress nounwind uwtable
define linkonce_odr hidden void @_ZN4llvm7MCValueC2Ev(ptr noundef nonnull align 8 dereferenceable(28) %0) unnamed_addr #1 comdat align 2 {
  %2 = alloca ptr, align 8
  store ptr %0, ptr %2, align 8
  %3 = load ptr, ptr %2, align 8
  %4 = getelementptr inbounds nuw %"class.llvm::MCValue", ptr %3, i32 0, i32 0
  store ptr null, ptr %4, align 8
  %5 = getelementptr inbounds nuw %"class.llvm::MCValue", ptr %3, i32 0, i32 1
  store ptr null, ptr %5, align 8
  %6 = getelementptr inbounds nuw %"class.llvm::MCValue", ptr %3, i32 0, i32 2
  store i64 0, ptr %6, align 8
  %7 = getelementptr inbounds nuw %"class.llvm::MCValue", ptr %3, i32 0, i32 3
  store i32 0, ptr %7, align 8
  ret void
}

; Function Attrs: mustprogress nounwind uwtable
define linkonce_odr hidden noundef nonnull align 8 dereferenceable(16) ptr @_ZNKSt10unique_ptrIN4llvm12MCAsmBackendESt14default_deleteIS1_EEdeEv(ptr noundef nonnull align 8 dereferenceable(8) %0) #1 comdat align 2 {
  %2 = alloca ptr, align 8
  store ptr %0, ptr %2, align 8
  %3 = load ptr, ptr %2, align 8
  br label %4

4:                                                ; preds = %1
  br label %5

5:                                                ; preds = %4
  %6 = call noundef ptr @_ZNKSt10unique_ptrIN4llvm12MCAsmBackendESt14default_deleteIS1_EE3getEv(ptr noundef nonnull align 8 dereferenceable(8) %3) #8
  ret ptr %6
}

; Function Attrs: mustprogress nounwind uwtable
define dso_local noundef zeroext i1 @_ZNK4llvm11MCAssembler20fixupNeedsRelaxationERKNS_7MCFixupEPKNS_19MCRelaxableFragmentE(ptr noundef nonnull align 8 dereferenceable(372) %0, ptr noundef nonnull align 8 dereferenceable(24) %1, ptr noundef %2) #1 align 2 {
  %4 = alloca i1, align 1
  %5 = alloca ptr, align 8
  %6 = alloca ptr, align 8
  %7 = alloca ptr, align 8
  %8 = alloca %"class.llvm::MCValue", align 8
  %9 = alloca i64, align 8
  %10 = alloca i8, align 1
  %11 = alloca i8, align 1
  store ptr %0, ptr %5, align 8
  store ptr %1, ptr %6, align 8
  store ptr %2, ptr %7, align 8
  %12 = load ptr, ptr %5, align 8
  call void @_ZN4llvm7MCValueC2Ev(ptr noundef nonnull align 8 dereferenceable(28) %8) #8
  %13 = load ptr, ptr %6, align 8
  %14 = load ptr, ptr %7, align 8
  %15 = load ptr, ptr %7, align 8
  %16 = call noundef ptr @_ZNK4llvm17MCEncodedFragment16getSubtargetInfoEv(ptr noundef nonnull align 8 dereferenceable(40) %15)
  %17 = call noundef zeroext i1 @_ZNK4llvm11MCAssembler13evaluateFixupERKNS_7MCFixupEPKNS_10MCFragmentERNS_7MCValueEPKNS_15MCSubtargetInfoERmRb(ptr noundef nonnull align 8 dereferenceable(372) %12, ptr noundef nonnull align 8 dereferenceable(24) %13, ptr noundef %14, ptr noundef nonnull align 8 dereferenceable(28) %8, ptr noundef %16, ptr noundef nonnull align 8 dereferenceable(8) %9, ptr noundef nonnull align 1 dereferenceable(1) %10)
  %18 = zext i1 %17 to i8
  store i8 %18, ptr %11, align 1
  %19 = call noundef ptr @_ZNK4llvm7MCValue7getSymAEv(ptr noundef nonnull align 8 dereferenceable(28) %8)
  %20 = icmp ne ptr %19, null
  br i1 %20, label %21, label %31

21:                                               ; preds = %3
  %22 = call noundef ptr @_ZNK4llvm7MCValue7getSymAEv(ptr noundef nonnull align 8 dereferenceable(28) %8)
  %23 = call noundef zeroext i16 @_ZNK4llvm15MCSymbolRefExpr7getKindEv(ptr noundef nonnull align 8 dereferenceable(24) %22)
  %24 = zext i16 %23 to i32
  %25 = icmp eq i32 %24, 36
  br i1 %25, label %26, label %31

26:                                               ; preds = %21
  %27 = load ptr, ptr %6, align 8
  %28 = call noundef i32 @_ZNK4llvm7MCFixup7getKindEv(ptr noundef nonnull align 8 dereferenceable(24) %27)
  %29 = icmp eq i32 %28, 1
  br i1 %29, label %30, label %31

30:                                               ; preds = %26
  store i1 false, ptr %4, align 1
  br label %44

31:                                               ; preds = %26, %21, %3
  %32 = call noundef nonnull align 8 dereferenceable(16) ptr @_ZNK4llvm11MCAssembler10getBackendEv(ptr noundef nonnull align 8 dereferenceable(372) %12)
  %33 = load ptr, ptr %6, align 8
  %34 = load i8, ptr %11, align 1
  %35 = trunc i8 %34 to i1
  %36 = load i64, ptr %9, align 8
  %37 = load ptr, ptr %7, align 8
  %38 = load i8, ptr %10, align 1
  %39 = trunc i8 %38 to i1
  %40 = load ptr, ptr %32, align 8
  %41 = getelementptr inbounds ptr, ptr %40, i64 16
  %42 = load ptr, ptr %41, align 8
  %43 = call noundef zeroext i1 %42(ptr noundef nonnull align 8 dereferenceable(16) %32, ptr noundef nonnull align 8 dereferenceable(372) %12, ptr noundef nonnull align 8 dereferenceable(24) %33, i1 noundef zeroext %35, i64 noundef %36, ptr noundef %37, i1 noundef zeroext %39)
  store i1 %43, ptr %4, align 1
  br label %44

44:                                               ; preds = %31, %30
  %45 = load i1, ptr %4, align 1
  ret i1 %45
}

; Function Attrs: mustprogress nounwind uwtable
define linkonce_odr hidden noundef ptr @_ZNK4llvm25SmallVectorTemplateCommonINS_7MCFixupEvE3endEv(ptr noundef nonnull align 8 dereferenceable(16) %0) #1 comdat align 2 {
  %2 = alloca ptr, align 8
  store ptr %0, ptr %2, align 8
  %3 = load ptr, ptr %2, align 8
  %4 = call noundef ptr @_ZNK4llvm25SmallVectorTemplateCommonINS_7MCFixupEvE5beginEv(ptr noundef nonnull align 8 dereferenceable(16) %3)
  %5 = call noundef i64 @_ZNK4llvm15SmallVectorBaseIjE4sizeEv(ptr noundef nonnull align 8 dereferenceable(16) %3)
  %6 = getelementptr inbounds %"class.llvm::MCFixup", ptr %4, i64 %5
  ret ptr %6
}

; Function Attrs: mustprogress nounwind uwtable
define linkonce_odr hidden noundef ptr @_ZNK4llvm25SmallVectorTemplateCommonINS_7MCFixupEvE5beginEv(ptr noundef nonnull align 8 dereferenceable(16) %0) #1 comdat align 2 {
  %2 = alloca ptr, align 8
  store ptr %0, ptr %2, align 8
  %3 = load ptr, ptr %2, align 8
  %4 = getelementptr inbounds nuw %"class.llvm::SmallVectorBase", ptr %3, i32 0, i32 0
  %5 = load ptr, ptr %4, align 8
  ret ptr %5
}

; Function Attrs: mustprogress nounwind uwtable
define linkonce_odr hidden noundef nonnull align 8 dereferenceable(16) ptr @_ZNK4llvm27MCEncodedFragmentWithFixupsILj8ELj1EE9getFixupsEv(ptr noundef nonnull align 8 dereferenceable(112) %0) #1 comdat align 2 {
  %2 = alloca ptr, align 8
  store ptr %0, ptr %2, align 8
  %3 = load ptr, ptr %2, align 8
  %4 = getelementptr inbounds nuw %"class.llvm::MCEncodedFragmentWithFixups.168", ptr %3, i32 0, i32 2
  ret ptr %4
}

; Function Attrs: mustprogress nounwind uwtable
define linkonce_odr hidden noundef ptr @_ZNK4llvm17MCEncodedFragment16getSubtargetInfoEv(ptr noundef nonnull align 8 dereferenceable(40) %0) #1 comdat align 2 {
  %2 = alloca ptr, align 8
  store ptr %0, ptr %2, align 8
  %3 = load ptr, ptr %2, align 8
  %4 = getelementptr inbounds nuw %"class.llvm::MCEncodedFragment", ptr %3, i32 0, i32 2
  %5 = load ptr, ptr %4, align 8
  ret ptr %5
}

; Function Attrs: mustprogress nounwind uwtable
define linkonce_odr hidden noundef nonnull align 8 dereferenceable(128) ptr @_ZNK4llvm19MCRelaxableFragment7getInstEv(ptr noundef nonnull align 8 dereferenceable(240) %0) #1 comdat align 2 {
  %2 = alloca ptr, align 8
  store ptr %0, ptr %2, align 8
  %3 = load ptr, ptr %2, align 8
  %4 = getelementptr inbounds nuw %"class.llvm::MCRelaxableFragment", ptr %3, i32 0, i32 1
  ret ptr %4
}

; Function Attrs: mustprogress nounwind uwtable
define linkonce_odr hidden noundef nonnull align 8 dereferenceable(16) ptr @_ZNK4llvm11MCAssembler10getBackendEv(ptr noundef nonnull align 8 dereferenceable(372) %0) #1 comdat align 2 {
  %2 = alloca ptr, align 8
  store ptr %0, ptr %2, align 8
  %3 = load ptr, ptr %2, align 8
  %4 = getelementptr inbounds nuw %"class.llvm::MCAssembler", ptr %3, i32 0, i32 1
  %5 = call noundef nonnull align 8 dereferenceable(16) ptr @_ZNKSt10unique_ptrIN4llvm12MCAsmBackendESt14default_deleteIS1_EEdeEv(ptr noundef nonnull align 8 dereferenceable(8) %4) #8
  ret ptr %5
}

; Function Attrs: mustprogress nounwind uwtable
define dso_local noundef zeroext i1 @_ZNK4llvm11MCAssembler23fragmentNeedsRelaxationEPKNS_19MCRelaxableFragmentE(ptr noundef nonnull align 8 dereferenceable(372) %0, ptr noundef %1) #1 align 2 {
  %3 = alloca i1, align 1
  %4 = alloca ptr, align 8
  %5 = alloca ptr, align 8
  %6 = alloca ptr, align 8
  %7 = alloca ptr, align 8
  %8 = alloca ptr, align 8
  %9 = alloca ptr, align 8
  store ptr %0, ptr %4, align 8
  store ptr %1, ptr %5, align 8
  %10 = load ptr, ptr %4, align 8
  %11 = call noundef nonnull align 8 dereferenceable(16) ptr @_ZNK4llvm11MCAssembler10getBackendEv(ptr noundef nonnull align 8 dereferenceable(372) %10)
  %12 = load ptr, ptr %5, align 8
  %13 = call noundef nonnull align 8 dereferenceable(128) ptr @_ZNK4llvm19MCRelaxableFragment7getInstEv(ptr noundef nonnull align 8 dereferenceable(240) %12)
  %14 = load ptr, ptr %5, align 8
  %15 = call noundef ptr @_ZNK4llvm17MCEncodedFragment16getSubtargetInfoEv(ptr noundef nonnull align 8 dereferenceable(40) %14)
  %16 = load ptr, ptr %11, align 8
  %17 = getelementptr inbounds ptr, ptr %16, i64 15
  %18 = load ptr, ptr %17, align 8
  %19 = call noundef zeroext i1 %18(ptr noundef nonnull align 8 dereferenceable(16) %11, ptr noundef nonnull align 8 dereferenceable(128) %13, ptr noundef nonnull align 1 %15)
  br i1 %19, label %21, label %20

20:                                               ; preds = %2
  store i1 false, ptr %3, align 1
  br label %43

21:                                               ; preds = %2
  %22 = load ptr, ptr %5, align 8
  %23 = call noundef nonnull align 8 dereferenceable(16) ptr @_ZNK4llvm27MCEncodedFragmentWithFixupsILj8ELj1EE9getFixupsEv(ptr noundef nonnull align 8 dereferenceable(112) %22)
  store ptr %23, ptr %6, align 8
  %24 = load ptr, ptr %6, align 8
  %25 = call noundef ptr @_ZNK4llvm25SmallVectorTemplateCommonINS_7MCFixupEvE5beginEv(ptr noundef nonnull align 8 dereferenceable(16) %24)
  store ptr %25, ptr %7, align 8
  %26 = load ptr, ptr %6, align 8
  %27 = call noundef ptr @_ZNK4llvm25SmallVectorTemplateCommonINS_7MCFixupEvE3endEv(ptr noundef nonnull align 8 dereferenceable(16) %26)
  store ptr %27, ptr %8, align 8
  br label %28

28:                                               ; preds = %39, %21
  %29 = load ptr, ptr %7, align 8
  %30 = load ptr, ptr %8, align 8
  %31 = icmp ne ptr %29, %30
  br i1 %31, label %32, label %42

32:                                               ; preds = %28
  %33 = load ptr, ptr %7, align 8
  store ptr %33, ptr %9, align 8
  %34 = load ptr, ptr %9, align 8
  %35 = load ptr, ptr %5, align 8
  %36 = call noundef zeroext i1 @_ZNK4llvm11MCAssembler20fixupNeedsRelaxationERKNS_7MCFixupEPKNS_19MCRelaxableFragmentE(ptr noundef nonnull align 8 dereferenceable(372) %10, ptr noundef nonnull align 8 dereferenceable(24) %34, ptr noundef %35)
  br i1 %36, label %37, label %38

37:                                               ; preds = %32
  store i1 true, ptr %3, align 1
  br label %43

38:                                               ; preds = %32
  br label %39

39:                                               ; preds = %38
  %40 = load ptr, ptr %7, align 8
  %41 = getelementptr inbounds %"class.llvm::MCFixup", ptr %40, i32 1
  store ptr %41, ptr %7, align 8
  br label %28

42:                                               ; preds = %28
  store i1 false, ptr %3, align 1
  br label %43

43:                                               ; preds = %42, %37, %20
  %44 = load i1, ptr %3, align 1
  ret i1 %44
}