; Function Attrs: mustprogress nounwind uwtable
define dso_local noundef zeroext i1 @_ZNK4llvm11MCAssembler23fragmentNeedsRelaxationEPKNS_19MCRelaxableFragmentE(ptr noundef nonnull align 8 dereferenceable(372) %0, ptr noundef %1) local_unnamed_addr #0 align 2 {
  %3 = alloca %"class.llvm::MCValue", align 8
  %4 = alloca i64, align 8
  %5 = alloca i8, align 1
  %6 = getelementptr inbounds nuw i8, ptr %0, i64 8
  %7 = load ptr, ptr %6, align 8
  %8 = getelementptr inbounds nuw i8, ptr %1, i64 112
  %9 = getelementptr inbounds nuw i8, ptr %1, i64 32
  %10 = load ptr, ptr %9, align 8
  %11 = load ptr, ptr %7, align 8
  %12 = getelementptr inbounds i8, ptr %11, i64 120
  %13 = load ptr, ptr %12, align 8
  %14 = tail call noundef zeroext i1 %13(ptr noundef nonnull align 8 dereferenceable(16) %7, ptr noundef nonnull align 8 dereferenceable(128) %8, ptr noundef nonnull align 1 %10) #11
  br i1 %14, label %15, label %.loopexit

15:                                               ; preds = %2
  %16 = getelementptr inbounds nuw i8, ptr %1, i64 72
  %17 = load ptr, ptr %16, align 8
  %18 = tail call noundef i64 @_ZNK4llvm15SmallVectorBaseIjE4sizeEv(ptr noundef nonnull align 8 dereferenceable(16) %16) #11
  %19 = getelementptr inbounds %"class.llvm::MCFixup", ptr %17, i64 %18
  %.not15 = icmp eq i64 %18, 0
  br i1 %.not15, label %.loopexit, label %.lr.ph

.lr.ph:                                           ; preds = %15, %39
  %.01316 = phi ptr [ %40, %39 ], [ %17, %15 ]
  call void @llvm.lifetime.start.p0(i64 32, ptr nonnull %3)
  call void @llvm.lifetime.start.p0(i64 8, ptr nonnull %4)
  call void @llvm.lifetime.start.p0(i64 1, ptr nonnull %5)
  call void @llvm.memset.p0.i64(ptr noundef nonnull align 8 dereferenceable(28) %3, i8 0, i64 28, i1 false)
  %20 = load ptr, ptr %9, align 8
  %21 = call noundef zeroext i1 @_ZNK4llvm11MCAssembler13evaluateFixupERKNS_7MCFixupEPKNS_10MCFragmentERNS_7MCValueEPKNS_15MCSubtargetInfoERmRb(ptr noundef nonnull align 8 dereferenceable(372) %0, ptr noundef nonnull align 8 dereferenceable(24) %.01316, ptr noundef nonnull %1, ptr noundef nonnull align 8 dereferenceable(28) %3, ptr noundef %20, ptr noundef nonnull align 8 dereferenceable(8) %4, ptr noundef nonnull align 1 dereferenceable(1) %5)
  %22 = load ptr, ptr %3, align 8
  %.not.i = icmp eq ptr %22, null
  br i1 %.not.i, label %_ZNK4llvm11MCAssembler20fixupNeedsRelaxationERKNS_7MCFixupEPKNS_19MCRelaxableFragmentE.exit, label %23

23:                                               ; preds = %.lr.ph
  %24 = getelementptr inbounds nuw i8, ptr %22, i64 1
  %25 = load i32, ptr %24, align 1
  %26 = and i32 %25, 65535
  %27 = icmp eq i32 %26, 36
  %28 = getelementptr inbounds nuw i8, ptr %.01316, i64 12
  %29 = load i32, ptr %28, align 4
  %30 = icmp eq i32 %29, 1
  %or.cond.i = select i1 %27, i1 %30, i1 false
  br i1 %or.cond.i, label %_ZNK4llvm11MCAssembler20fixupNeedsRelaxationERKNS_7MCFixupEPKNS_19MCRelaxableFragmentE.exit.thread, label %_ZNK4llvm11MCAssembler20fixupNeedsRelaxationERKNS_7MCFixupEPKNS_19MCRelaxableFragmentE.exit

_ZNK4llvm11MCAssembler20fixupNeedsRelaxationERKNS_7MCFixupEPKNS_19MCRelaxableFragmentE.exit.thread: ; preds = %23
  call void @llvm.lifetime.end.p0(i64 32, ptr nonnull %3)
  call void @llvm.lifetime.end.p0(i64 8, ptr nonnull %4)
  call void @llvm.lifetime.end.p0(i64 1, ptr nonnull %5)
  br label %39

_ZNK4llvm11MCAssembler20fixupNeedsRelaxationERKNS_7MCFixupEPKNS_19MCRelaxableFragmentE.exit: ; preds = %.lr.ph, %23
  %31 = load ptr, ptr %6, align 8
  %32 = load i64, ptr %4, align 8
  %33 = load i8, ptr %5, align 1
  %34 = trunc i8 %33 to i1
  %35 = load ptr, ptr %31, align 8
  %36 = getelementptr inbounds i8, ptr %35, i64 128
  %37 = load ptr, ptr %36, align 8
  %38 = call noundef zeroext i1 %37(ptr noundef nonnull align 8 dereferenceable(16) %31, ptr noundef nonnull align 8 dereferenceable(372) %0, ptr noundef nonnull align 8 dereferenceable(24) %.01316, i1 noundef zeroext %21, i64 noundef %32, ptr noundef nonnull %1, i1 noundef zeroext %34) #11
  call void @llvm.lifetime.end.p0(i64 32, ptr nonnull %3)
  call void @llvm.lifetime.end.p0(i64 8, ptr nonnull %4)
  call void @llvm.lifetime.end.p0(i64 1, ptr nonnull %5)
  br i1 %38, label %.loopexit, label %39

39:                                               ; preds = %_ZNK4llvm11MCAssembler20fixupNeedsRelaxationERKNS_7MCFixupEPKNS_19MCRelaxableFragmentE.exit.thread, %_ZNK4llvm11MCAssembler20fixupNeedsRelaxationERKNS_7MCFixupEPKNS_19MCRelaxableFragmentE.exit
  %40 = getelementptr inbounds i8, ptr %.01316, i64 24
  %.not = icmp eq ptr %40, %19
  br i1 %.not, label %.loopexit, label %.lr.ph

.loopexit:                                        ; preds = %_ZNK4llvm11MCAssembler20fixupNeedsRelaxationERKNS_7MCFixupEPKNS_19MCRelaxableFragmentE.exit, %39, %15, %2
  %.0 = phi i1 [ false, %2 ], [ false, %15 ], [ true, %_ZNK4llvm11MCAssembler20fixupNeedsRelaxationERKNS_7MCFixupEPKNS_19MCRelaxableFragmentE.exit ], [ false, %39 ]
  ret i1 %.0
}